target datalayout = "e-m:e-p270:32:32-p271:32:32-p272:64:64-i64:64-i128:128-f80:128-n8:16:32:64-S128"
target triple = "x86_64-unknown-linux-gnu"

%struct.iovec = type { ptr, i64 }

; Function Attrs: nounwind sspstrong uwtable
define internal i64 @e1000_receive(ptr noundef %nc, ptr noundef %buf, i64 noundef %size) #0 {
entry:
  %nc.addr = alloca ptr, align 8
  %buf.addr = alloca ptr, align 8
  %size.addr = alloca i64, align 8
  %iov = alloca %struct.iovec, align 8
  store ptr %nc, ptr %nc.addr, align 8
  store ptr %buf, ptr %buf.addr, align 8
  store i64 %size, ptr %size.addr, align 8
  %iov_base = getelementptr inbounds %struct.iovec, ptr %iov, i32 0, i32 0
  %0 = load ptr, ptr %buf.addr, align 8
  store ptr %0, ptr %iov_base, align 8
  %iov_len = getelementptr inbounds %struct.iovec, ptr %iov, i32 0, i32 1
  %1 = load i64, ptr %size.addr, align 8
  store i64 %1, ptr %iov_len, align 8
  %2 = load ptr, ptr %nc.addr, align 8
  %call = call i64 @e1000_receive_iov(ptr noundef %2, ptr noundef %iov, i32 noundef 1)
  ret i64 %call
}