; Function Attrs: nounwind sspstrong uwtable
define internal i64 @e1000_receive(ptr noundef %nc, ptr noundef %buf, i64 noundef %size) #0 {
entry:
  %iov = alloca %struct.iovec, align 8
  store ptr %buf, ptr %iov, align 8
  %iov_len = getelementptr inbounds nuw i8, ptr %iov, i64 8
  store i64 %size, ptr %iov_len, align 8
  %call = call i64 @e1000_receive_iov(ptr noundef %nc, ptr noundef nonnull %iov, i32 noundef 1)
  ret i64 %call
}